; Function Attrs: mustprogress nofree norecurse nosync nounwind willreturn memory(none) uwtable
define range(i32 0, 4) i32 @ucase_getType_77(i32 noundef %0) local_unnamed_addr #3 {
  %2 = icmp ult i32 %0, 55296
  br i1 %2, label %3, label %5

3:                                                ; preds = %1
  %4 = lshr i32 %0, 5
  br label %.sink.split

5:                                                ; preds = %1
  %6 = icmp ult i32 %0, 65536
  br i1 %6, label %7, label %12

7:                                                ; preds = %5
  %8 = icmp samesign ult i32 %0, 56320
  %9 = select i1 %8, i32 320, i32 0
  %10 = lshr i32 %0, 5
  %11 = add nuw nsw i32 %9, %10
  br label %.sink.split

12:                                               ; preds = %5
  %13 = icmp ugt i32 %0, 1114111
  br i1 %13, label %34, label %14

14:                                               ; preds = %12
  %15 = icmp samesign ugt i32 %0, 919551
  br i1 %15, label %34, label %16

16:                                               ; preds = %14
  %17 = lshr i32 %0, 11
  %18 = zext nneg i32 %17 to i64
  %19 = getelementptr inbounds nuw i16, ptr @_ZL21ucase_props_trieIndex, i64 %18
  %20 = getelementptr inbounds nuw i8, ptr %19, i64 4160
  %21 = load i16, ptr %20, align 2, !tbaa !14
  %22 = zext i16 %21 to i32
  %23 = lshr i32 %0, 5
  %24 = and i32 %23, 63
  %25 = add nuw nsw i32 %24, %22
  br label %.sink.split

.sink.split:                                      ; preds = %3, %16, %7
  %.sink16 = phi i32 [ %11, %7 ], [ %25, %16 ], [ %4, %3 ]
  %26 = zext nneg i32 %.sink16 to i64
  %27 = getelementptr inbounds nuw i16, ptr @_ZL21ucase_props_trieIndex, i64 %26
  %28 = load i16, ptr %27, align 2, !tbaa !14
  %29 = zext i16 %28 to i32
  %30 = shl nuw nsw i32 %29, 2
  %31 = and i32 %0, 31
  %32 = add nuw nsw i32 %30, %31
  %33 = zext nneg i32 %32 to i64
  br label %34

34:                                               ; preds = %.sink.split, %14, %12
  %35 = phi i64 [ 3596, %12 ], [ 13368, %14 ], [ %33, %.sink.split ]
  %36 = getelementptr inbounds nuw i16, ptr @_ZL21ucase_props_trieIndex, i64 %35
  %37 = load i16, ptr %36, align 2, !tbaa !14
  %38 = and i16 %37, 3
  %39 = zext nneg i16 %38 to i32
  ret i32 %39
}